Certificate:
    Data:
        Version: 1 (0x0)
        Serial Number: 1 (0x1)
    Signature Algorithm: sha512WithRSAEncryption
        Issuer: C=US, ST=CA, O=Open vSwitch, OU=switchca, CN=OVS switchca CA Certificate (2017 Jul 19 15:52:01)
        Validity
            Not Before: Jul 19 19:52:01 2017 GMT
            Not After : Jul 17 19:52:01 2027 GMT
        Subject: C=US, ST=CA, O=Open vSwitch, OU=switchca, CN=OVS switchca CA Certificate (2017 Jul 19 15:52:01)
        Subject Public Key Info:
            Public Key Algorithm: rsaEncryption
                Public-Key: (1024 bit)
                Modulus:
                    00:b1:e2:d4:f8:1a:0e:d6:d2:0f:9d:50:32:81:d6:
                    42:2a:99:a8:e7:c1:b9:e5:e4:f4:17:09:b6:bd:ae:
                    92:6a:b0:32:5c:32:ec:ff:b6:d6:f6:f0:29:16:d5:
                    38:5b:30:1e:ee:06:63:76:a8:7b:89:6a:f8:2e:eb:
                    be:55:58:da:d4:fb:aa:99:ee:18:82:e4:bc:b7:78:
                    c2:7c:67:d2:c4:18:a5:65:eb:35:43:35:42:d2:b9:
                    d8:92:ee:4d:66:cb:f8:83:66:bd:6f:51:50:bd:79:
                    0d:88:cb:c5:07:ad:ca:c9:9c:aa:72:24:44:4f:ec:
                    27:4c:36:e3:61:d7:de:30:49
                Exponent: 65537 (0x10001)
    Signature Algorithm: sha512WithRSAEncryption
         7d:06:ae:89:57:37:7f:6c:b3:4c:3a:84:26:7f:bd:a1:b3:d5:
         2c:38:6b:39:71:ab:d1:a4:9a:83:ea:7e:09:22:85:9b:9d:e9:
         66:b3:de:87:48:e9:20:8f:b8:05:95:1a:f2:fc:64:5b:4e:10:
         72:d6:a8:b8:4c:f0:22:b0:5c:b6:71:cf:df:61:f1:b9:29:33:
         46:c4:5f:10:29:ad:54:41:4c:21:4f:0d:39:d3:a5:aa:81:ac:
         cf:35:cc:5f:1b:8c:47:70:f9:9f:51:16:27:95:0f:8e:28:8d:
         e3:91:75:ac:28:c1:94:0c:23:1b:7d:24:aa:8c:18:b6:43:83:
         2c:cb
-----BEGIN CERTIFICATE-----
MIICczCCAdwCAQEwDQYJKoZIhvcNAQENBQAwgYExCzAJBgNVBAYTAlVTMQswCQYD
VQQIDAJDQTEVMBMGA1UECgwMT3BlbiB2U3dpdGNoMREwDwYDVQQLDAhzd2l0Y2hj
YTE7MDkGA1UEAwwyT1ZTIHN3aXRjaGNhIENBIENlcnRpZmljYXRlICgyMDE3IEp1
bCAxOSAxNTo1MjowMSkwHhcNMTcwNzE5MTk1MjAxWhcNMjcwNzE3MTk1MjAxWjCB
gTELMAkGA1UEBhMCVVMxCzAJBgNVBAgMAkNBMRUwEwYDVQQKDAxPcGVuIHZTd2l0
Y2gxETAPBgNVBAsMCHN3aXRjaGNhMTswOQYDVQQDDDJPVlMgc3dpdGNoY2EgQ0Eg
Q2VydGlmaWNhdGUgKDIwMTcgSnVsIDE5IDE1OjUyOjAxKTCBnzANBgkqhkiG9w0B
AQEFAAOBjQAwgYkCgYEAseLU+BoO1tIPnVAygdZCKpmo58G55eT0Fwm2va6SarAy
XDLs/7bW9vApFtU4WzAe7gZjdqh7iWr4Luu+VVja1Puqme4YguS8t3jCfGfSxBil
Zes1QzVC0rnYku5NZsv4g2a9b1FQvXkNiMvFB63KyZyqciRET+wnTDbjYdfeMEkC
AwEAATANBgkqhkiG9w0BAQ0FAAOBgQB9Bq6JVzd/bLNMOoQmf72hs9UsOGs5cavR
pJqD6n4JIoWbnelms96HSOkgj7gFlRry/GRbThBy1qi4TPAisFy2cc/fYfG5KTNG
xF8QKa1UQUwhTw0506WqgazPNcxfG4xHcPmfURYnlQ+OKI3jkXWsKMGUDCMbfSSq
jBi2Q4Msyw==
-----END CERTIFICATE-----
