Certificate:
    Data:
        Version: 1 (0x0)
        Serial Number: 4 (0x4)
    Signature Algorithm: sha512WithRSAEncryption
        Issuer: C=US, ST=CA, O=Open vSwitch, OU=switchca, CN=OVS switchca CA Certificate (2017 Jul 19 15:52:01)
        Validity
            Not Before: Jul 19 19:52:40 2017 GMT
            Not After : Jul 17 19:52:40 2027 GMT
        Subject: C=US, ST=CA, O=Open vSwitch, OU=Open vSwitch certifier, CN=ovnnb id:cb9821a1-b47b-4862-89a0-b0124c6ba2d0
        Subject Public Key Info:
            Public Key Algorithm: rsaEncryption
                Public-Key: (1024 bit)
                Modulus:
                    00:c9:3c:0c:c6:2c:4e:1a:78:2f:2a:d4:0b:f6:54:
                    cf:72:b2:aa:fe:ec:eb:e0:de:b5:14:5d:a8:5a:d5:
                    ef:ab:2f:e4:14:b1:f2:53:c0:a0:4c:b7:f4:b2:59:
                    4b:08:7b:b5:e1:63:ec:fe:72:a8:e8:5d:4c:1d:6b:
                    10:fc:47:a3:a7:ef:d5:37:46:23:e2:9c:00:d9:1f:
                    7c:f2:91:e7:fb:47:23:25:98:8c:be:33:10:4e:9c:
                    28:a1:94:3d:ca:0a:8c:68:45:ba:99:c2:be:4c:c3:
                    77:ad:a6:5d:5a:f1:5b:ea:de:7e:e6:3c:56:d7:d5:
                    99:24:a5:63:ad:61:e2:92:5d
                Exponent: 65537 (0x10001)
    Signature Algorithm: sha512WithRSAEncryption
         85:a7:af:53:0b:be:52:0f:03:bc:e4:5f:c9:a2:c2:b2:b9:00:
         59:8e:fe:25:94:10:b5:fb:b8:4d:c4:d3:1d:dc:3b:18:8f:fd:
         44:e6:4f:07:ee:0b:7b:1b:94:7d:e5:fe:dd:2e:79:55:e2:4b:
         27:5a:18:f1:51:e6:eb:c5:c6:41:e1:ff:87:10:4c:d7:eb:de:
         c6:57:2d:52:de:ab:02:d8:7b:21:5a:c0:5f:9c:a0:32:38:e3:
         69:55:26:dd:71:bc:bb:25:a5:68:ab:10:4d:ec:ec:f9:ba:a3:
         fb:e4:b8:b2:6d:7f:7e:ec:6f:37:6e:98:d5:88:1c:58:a3:0c:
         44:4c
-----BEGIN CERTIFICATE-----
MIICfDCCAeUCAQQwDQYJKoZIhvcNAQENBQAwgYExCzAJBgNVBAYTAlVTMQswCQYD
VQQIDAJDQTEVMBMGA1UECgwMT3BlbiB2U3dpdGNoMREwDwYDVQQLDAhzd2l0Y2hj
YTE7MDkGA1UEAwwyT1ZTIHN3aXRjaGNhIENBIENlcnRpZmljYXRlICgyMDE3IEp1
bCAxOSAxNTo1MjowMSkwHhcNMTcwNzE5MTk1MjQwWhcNMjcwNzE3MTk1MjQwWjCB
ijELMAkGA1UEBhMCVVMxCzAJBgNVBAgMAkNBMRUwEwYDVQQKDAxPcGVuIHZTd2l0
Y2gxHzAdBgNVBAsMFk9wZW4gdlN3aXRjaCBjZXJ0aWZpZXIxNjA0BgNVBAMMLW92
bm5iIGlkOmNiOTgyMWExLWI0N2ItNDg2Mi04OWEwLWIwMTI0YzZiYTJkMDCBnzAN
BgkqhkiG9w0BAQEFAAOBjQAwgYkCgYEAyTwMxixOGngvKtQL9lTPcrKq/uzr4N61
FF2oWtXvqy/kFLHyU8CgTLf0sllLCHu14WPs/nKo6F1MHWsQ/Eejp+/VN0Yj4pwA
2R988pHn+0cjJZiMvjMQTpwooZQ9ygqMaEW6mcK+TMN3raZdWvFb6t5+5jxW19WZ
JKVjrWHikl0CAwEAATANBgkqhkiG9w0BAQ0FAAOBgQCFp69TC75SDwO85F/JosKy
uQBZjv4llBC1+7hNxNMd3DsYj/1E5k8H7gt7G5R95f7dLnlV4ksnWhjxUebrxcZB
4f+HEEzX697GVy1S3qsC2HshWsBfnKAyOONpVSbdcby7JaVoqxBN7Oz5uqP75Liy
bX9+7G83bpjViBxYowxETA==
-----END CERTIFICATE-----
