Certificate:
    Data:
        Version: 1 (0x0)
        Serial Number: 5 (0x5)
    Signature Algorithm: sha512WithRSAEncryption
        Issuer: C=US, ST=CA, O=Open vSwitch, OU=switchca, CN=OVS switchca CA Certificate (2017 Jul 19 15:52:01)
        Validity
            Not Before: Jul 19 19:52:46 2017 GMT
            Not After : Jul 17 19:52:46 2027 GMT
        Subject: C=US, ST=CA, O=Open vSwitch, OU=Open vSwitch certifier, CN=compute1 id:30d926d2-2bc7-4de6-a281-666bc2090803
        Subject Public Key Info:
            Public Key Algorithm: rsaEncryption
                Public-Key: (1024 bit)
                Modulus:
                    00:c5:bb:cd:45:0c:fb:4e:6c:78:cc:bd:a2:01:40:
                    16:96:38:51:69:2a:e2:06:8e:04:65:56:69:5e:e4:
                    ea:1d:91:7e:ad:9a:4c:73:e1:5f:36:6b:6d:2d:a6:
                    ba:78:57:d6:95:92:70:ca:19:4c:f4:48:ec:72:26:
                    88:a4:63:fd:66:4f:a1:de:2b:69:2a:cf:d9:54:77:
                    2b:1b:41:04:83:f3:0f:7b:10:19:b7:ad:42:77:19:
                    b9:96:01:61:a3:73:60:ab:78:6a:66:69:2b:84:e6:
                    ae:fb:24:43:31:33:95:a6:0d:00:94:95:18:42:1c:
                    05:5b:a8:7b:2d:b4:69:2f:4d
                Exponent: 65537 (0x10001)
    Signature Algorithm: sha512WithRSAEncryption
         8d:31:19:af:e6:a0:4f:2c:d4:d2:12:7d:40:90:fc:7e:17:1b:
         63:be:25:89:ec:2e:02:c4:d9:a0:c4:70:4d:08:4d:d7:52:32:
         39:96:da:ae:80:ec:a9:3f:5d:64:16:97:d2:f5:61:1f:74:8f:
         d1:6d:32:bf:03:82:01:7d:47:fe:f8:c7:c8:fe:10:c6:ca:e4:
         39:b4:4c:e8:0c:44:41:b9:ce:df:57:87:75:c5:b1:08:f3:7e:
         09:a3:4f:f1:58:38:b8:61:fc:38:4b:37:38:68:00:d0:72:90:
         da:fa:d5:c3:ac:ec:0c:f7:0c:e4:13:0d:3f:06:88:8a:fc:3a:
         6e:51
-----BEGIN CERTIFICATE-----
MIICfzCCAegCAQUwDQYJKoZIhvcNAQENBQAwgYExCzAJBgNVBAYTAlVTMQswCQYD
VQQIDAJDQTEVMBMGA1UECgwMT3BlbiB2U3dpdGNoMREwDwYDVQQLDAhzd2l0Y2hj
YTE7MDkGA1UEAwwyT1ZTIHN3aXRjaGNhIENBIENlcnRpZmljYXRlICgyMDE3IEp1
bCAxOSAxNTo1MjowMSkwHhcNMTcwNzE5MTk1MjQ2WhcNMjcwNzE3MTk1MjQ2WjCB
jTELMAkGA1UEBhMCVVMxCzAJBgNVBAgMAkNBMRUwEwYDVQQKDAxPcGVuIHZTd2l0
Y2gxHzAdBgNVBAsMFk9wZW4gdlN3aXRjaCBjZXJ0aWZpZXIxOTA3BgNVBAMMMGNv
bXB1dGUxIGlkOjMwZDkyNmQyLTJiYzctNGRlNi1hMjgxLTY2NmJjMjA5MDgwMzCB
nzANBgkqhkiG9w0BAQEFAAOBjQAwgYkCgYEAxbvNRQz7Tmx4zL2iAUAWljhRaSri
Bo4EZVZpXuTqHZF+rZpMc+FfNmttLaa6eFfWlZJwyhlM9EjsciaIpGP9Zk+h3itp
Ks/ZVHcrG0EEg/MPexAZt61Cdxm5lgFho3Ngq3hqZmkrhOau+yRDMTOVpg0AlJUY
QhwFW6h7LbRpL00CAwEAATANBgkqhkiG9w0BAQ0FAAOBgQCNMRmv5qBPLNTSEn1A
kPx+FxtjviWJ7C4CxNmgxHBNCE3XUjI5ltqugOypP11kFpfS9WEfdI/RbTK/A4IB
fUf++MfI/hDGyuQ5tEzoDERBuc7fV4d1xbEI834Jo0/xWDi4Yfw4Szc4aADQcpDa
+tXDrOwM9wzkEw0/BoiK/DpuUQ==
-----END CERTIFICATE-----
