Certificate:
    Data:
        Version: 1 (0x0)
        Serial Number: 6 (0x6)
    Signature Algorithm: sha512WithRSAEncryption
        Issuer: C=US, ST=CA, O=Open vSwitch, OU=switchca, CN=OVS switchca CA Certificate (2017 Jul 19 15:52:01)
        Validity
            Not Before: Jul 19 19:52:52 2017 GMT
            Not After : Jul 17 19:52:52 2027 GMT
        Subject: C=US, ST=CA, O=Open vSwitch, OU=Open vSwitch certifier, CN=compute2 id:8387b9c5-a4c9-4133-823d-ce99c8261b19
        Subject Public Key Info:
            Public Key Algorithm: rsaEncryption
                Public-Key: (1024 bit)
                Modulus:
                    00:cc:67:8c:63:12:2e:eb:b4:8e:80:3e:63:11:b5:
                    d1:ac:30:9c:14:a9:f4:55:c0:f0:87:10:c7:38:19:
                    01:e9:41:05:cf:c2:cf:5d:81:7d:9b:ff:6c:bd:e3:
                    ed:47:e8:f6:c3:73:6d:70:8b:2b:10:7e:cc:a6:64:
                    93:3e:c4:04:c2:dc:03:51:3e:38:a3:35:da:fd:90:
                    02:18:f7:1b:88:f4:e9:87:82:a2:61:1c:4b:46:87:
                    37:22:09:bb:56:2a:e2:8b:c6:2e:b0:1c:d6:5d:54:
                    7a:fc:f8:a1:32:84:23:94:01:9d:19:f2:53:2d:30:
                    64:eb:47:70:20:7c:ca:8e:eb
                Exponent: 65537 (0x10001)
    Signature Algorithm: sha512WithRSAEncryption
         5a:e3:bb:c3:80:0e:69:b9:29:6e:df:39:71:5e:ae:b4:9c:3d:
         25:79:82:15:d7:42:39:ff:5b:f7:8a:59:87:c1:58:d7:9c:d6:
         57:92:8f:0d:5a:ce:21:e4:51:75:e1:12:39:bd:8d:db:b6:0b:
         d1:e0:d5:20:1c:5d:81:29:2b:28:44:e0:f6:0f:88:84:64:4a:
         da:cf:2a:ee:85:a1:c4:c5:81:6c:1d:aa:2c:5f:21:e6:74:41:
         93:e4:2f:83:f0:60:38:3a:76:93:d0:ff:53:4c:1a:67:0a:b8:
         30:84:e1:26:32:6c:04:dc:74:e5:31:63:2e:b1:c1:36:36:16:
         e3:af
-----BEGIN CERTIFICATE-----
MIICfzCCAegCAQYwDQYJKoZIhvcNAQENBQAwgYExCzAJBgNVBAYTAlVTMQswCQYD
VQQIDAJDQTEVMBMGA1UECgwMT3BlbiB2U3dpdGNoMREwDwYDVQQLDAhzd2l0Y2hj
YTE7MDkGA1UEAwwyT1ZTIHN3aXRjaGNhIENBIENlcnRpZmljYXRlICgyMDE3IEp1
bCAxOSAxNTo1MjowMSkwHhcNMTcwNzE5MTk1MjUyWhcNMjcwNzE3MTk1MjUyWjCB
jTELMAkGA1UEBhMCVVMxCzAJBgNVBAgMAkNBMRUwEwYDVQQKDAxPcGVuIHZTd2l0
Y2gxHzAdBgNVBAsMFk9wZW4gdlN3aXRjaCBjZXJ0aWZpZXIxOTA3BgNVBAMMMGNv
bXB1dGUyIGlkOjgzODdiOWM1LWE0YzktNDEzMy04MjNkLWNlOTljODI2MWIxOTCB
nzANBgkqhkiG9w0BAQEFAAOBjQAwgYkCgYEAzGeMYxIu67SOgD5jEbXRrDCcFKn0
VcDwhxDHOBkB6UEFz8LPXYF9m/9svePtR+j2w3NtcIsrEH7MpmSTPsQEwtwDUT44
ozXa/ZACGPcbiPTph4KiYRxLRoc3Igm7Virii8YusBzWXVR6/PihMoQjlAGdGfJT
LTBk60dwIHzKjusCAwEAATANBgkqhkiG9w0BAQ0FAAOBgQBa47vDgA5puSlu3zlx
Xq60nD0leYIV10I5/1v3ilmHwVjXnNZXko8NWs4h5FF14RI5vY3btgvR4NUgHF2B
KSsoROD2D4iEZErazyruhaHExYFsHaosXyHmdEGT5C+D8GA4OnaT0P9TTBpnCrgw
hOEmMmwE3HTlMWMuscE2Nhbjrw==
-----END CERTIFICATE-----
