Certificate:
    Data:
        Version: 1 (0x0)
        Serial Number: 9 (0x9)
    Signature Algorithm: sha512WithRSAEncryption
        Issuer: C=US, ST=CA, O=Open vSwitch, OU=switchca, CN=OVS switchca CA Certificate (2017 Jul 19 15:52:01)
        Validity
            Not Before: Jul 20 15:25:21 2017 GMT
            Not After : Jul 18 15:25:21 2027 GMT
        Subject: C=US, ST=CA, O=Open vSwitch, OU=Open vSwitch certifier, CN=compute3
        Subject Public Key Info:
            Public Key Algorithm: rsaEncryption
                Public-Key: (1024 bit)
                Modulus:
                    00:bc:39:bb:5b:db:b1:4c:4f:8f:46:85:e0:f5:16:
                    a4:aa:8e:89:b5:87:10:d0:b6:29:43:15:09:e0:54:
                    43:ed:7f:aa:60:9f:a9:cc:e0:77:b6:3d:1d:5c:c7:
                    dc:93:cc:50:ba:e3:85:28:9a:b1:c0:c3:a2:ef:31:
                    1c:51:52:2e:5a:56:0d:d3:98:39:f4:6c:e6:d5:2d:
                    9a:7d:56:93:51:b9:92:5a:df:0c:d7:36:4e:2b:bf:
                    a9:70:ad:bc:d5:6d:11:18:99:ef:3b:61:bd:3e:f2:
                    11:c3:6f:b5:c6:ce:5e:db:c4:f7:7d:f2:64:47:42:
                    ac:31:f9:f2:eb:76:92:b0:9f
                Exponent: 65537 (0x10001)
    Signature Algorithm: sha512WithRSAEncryption
         40:29:f4:c3:a8:ae:34:d9:b7:61:82:5a:4b:20:9e:de:1b:a2:
         54:9f:ec:f4:64:3a:7f:16:65:72:11:0d:50:87:42:6f:91:1f:
         27:bf:a2:0d:45:fa:8c:3d:19:40:a5:fa:01:26:fb:8e:32:17:
         55:52:c1:5b:a2:1f:e0:49:25:80:1b:13:ff:7e:60:3a:7c:64:
         d4:d1:0d:64:4e:92:c4:a1:58:d3:dc:96:90:b9:fe:b4:51:b2:
         9f:6e:b8:c0:ce:f6:69:17:9f:32:35:3f:e1:b7:c5:f5:31:5a:
         fc:3a:09:7c:45:95:fd:f3:50:65:60:a1:5a:14:90:ae:35:cf:
         56:92
-----BEGIN CERTIFICATE-----
MIICVjCCAb8CAQkwDQYJKoZIhvcNAQENBQAwgYExCzAJBgNVBAYTAlVTMQswCQYD
VQQIDAJDQTEVMBMGA1UECgwMT3BlbiB2U3dpdGNoMREwDwYDVQQLDAhzd2l0Y2hj
YTE7MDkGA1UEAwwyT1ZTIHN3aXRjaGNhIENBIENlcnRpZmljYXRlICgyMDE3IEp1
bCAxOSAxNTo1MjowMSkwHhcNMTcwNzIwMTUyNTIxWhcNMjcwNzE4MTUyNTIxWjBl
MQswCQYDVQQGEwJVUzELMAkGA1UECAwCQ0ExFTATBgNVBAoMDE9wZW4gdlN3aXRj
aDEfMB0GA1UECwwWT3BlbiB2U3dpdGNoIGNlcnRpZmllcjERMA8GA1UEAwwIY29t
cHV0ZTMwgZ8wDQYJKoZIhvcNAQEBBQADgY0AMIGJAoGBALw5u1vbsUxPj0aF4PUW
pKqOibWHENC2KUMVCeBUQ+1/qmCfqczgd7Y9HVzH3JPMULrjhSiascDDou8xHFFS
LlpWDdOYOfRs5tUtmn1Wk1G5klrfDNc2Tiu/qXCtvNVtERiZ7zthvT7yEcNvtcbO
XtvE933yZEdCrDH58ut2krCfAgMBAAEwDQYJKoZIhvcNAQENBQADgYEAQCn0w6iu
NNm3YYJaSyCe3huiVJ/s9GQ6fxZlchENUIdCb5EfJ7+iDUX6jD0ZQKX6ASb7jjIX
VVLBW6If4EklgBsT/35gOnxk1NENZE6SxKFY09yWkLn+tFGyn264wM72aRefMjU/
4bfF9TFa/DoJfEWV/fNQZWChWhSQrjXPVpI=
-----END CERTIFICATE-----
