Certificate:
    Data:
        Version: 1 (0x0)
        Serial Number: 1 (0x1)
    Signature Algorithm: sha512WithRSAEncryption
        Issuer: C=US, ST=CA, O=Open vSwitch, OU=controllerca, CN=OVS controllerca CA Certificate (2017 Jul 19 15:52:01)
        Validity
            Not Before: Jul 19 19:52:01 2017 GMT
            Not After : Jul 17 19:52:01 2027 GMT
        Subject: C=US, ST=CA, O=Open vSwitch, OU=controllerca, CN=OVS controllerca CA Certificate (2017 Jul 19 15:52:01)
        Subject Public Key Info:
            Public Key Algorithm: rsaEncryption
                Public-Key: (1024 bit)
                Modulus:
                    00:b1:30:77:52:cb:43:3f:aa:b3:fa:20:2e:47:a2:
                    88:d2:c2:b1:4c:36:20:54:00:b0:9d:37:98:e4:fd:
                    4e:44:bc:46:6c:20:c2:7b:3b:d8:0d:c2:cb:16:dc:
                    bd:c7:a0:31:26:0b:53:9d:78:85:6b:3d:c1:26:95:
                    bc:44:15:4c:b7:fd:56:59:68:50:f0:a6:31:76:a9:
                    97:8e:b6:bb:dd:43:e0:ce:fb:cd:93:62:61:1b:56:
                    35:0a:ed:45:62:a5:59:64:0b:9a:29:c0:9d:6a:39:
                    eb:af:71:c0:57:c3:11:08:e1:b2:07:12:aa:c3:9f:
                    c9:6d:34:24:1f:94:a0:16:41
                Exponent: 65537 (0x10001)
    Signature Algorithm: sha512WithRSAEncryption
         17:ec:9d:8e:35:9d:b9:6e:48:95:0c:69:47:51:34:54:83:2f:
         fe:33:a7:d9:c5:38:97:9f:93:7d:3d:6d:34:66:81:01:06:22:
         d2:0a:b7:23:c8:c5:df:bd:0c:da:03:8f:9d:b7:06:7b:0d:ce:
         68:96:d5:40:aa:77:6a:42:dc:4f:9c:94:33:d3:af:28:a2:7c:
         d3:ca:67:e4:ec:69:0a:f0:12:68:6e:d9:2b:48:68:cc:cc:5f:
         f3:45:20:83:aa:9e:78:87:53:1a:fc:d3:0f:08:84:2b:ba:f7:
         d3:34:cd:60:92:57:f6:50:06:4a:1c:87:c0:0b:e7:4e:fa:16:
         3a:a0
-----BEGIN CERTIFICATE-----
MIICgzCCAewCAQEwDQYJKoZIhvcNAQENBQAwgYkxCzAJBgNVBAYTAlVTMQswCQYD
VQQIDAJDQTEVMBMGA1UECgwMT3BlbiB2U3dpdGNoMRUwEwYDVQQLDAxjb250cm9s
bGVyY2ExPzA9BgNVBAMMNk9WUyBjb250cm9sbGVyY2EgQ0EgQ2VydGlmaWNhdGUg
KDIwMTcgSnVsIDE5IDE1OjUyOjAxKTAeFw0xNzA3MTkxOTUyMDFaFw0yNzA3MTcx
OTUyMDFaMIGJMQswCQYDVQQGEwJVUzELMAkGA1UECAwCQ0ExFTATBgNVBAoMDE9w
ZW4gdlN3aXRjaDEVMBMGA1UECwwMY29udHJvbGxlcmNhMT8wPQYDVQQDDDZPVlMg
Y29udHJvbGxlcmNhIENBIENlcnRpZmljYXRlICgyMDE3IEp1bCAxOSAxNTo1Mjow
MSkwgZ8wDQYJKoZIhvcNAQEBBQADgY0AMIGJAoGBALEwd1LLQz+qs/ogLkeiiNLC
sUw2IFQAsJ03mOT9TkS8Rmwgwns72A3CyxbcvcegMSYLU514hWs9wSaVvEQVTLf9
VlloUPCmMXapl462u91D4M77zZNiYRtWNQrtRWKlWWQLminAnWo5669xwFfDEQjh
sgcSqsOfyW00JB+UoBZBAgMBAAEwDQYJKoZIhvcNAQENBQADgYEAF+ydjjWduW5I
lQxpR1E0VIMv/jOn2cU4l5+TfT1tNGaBAQYi0gq3I8jF370M2gOPnbcGew3OaJbV
QKp3akLcT5yUM9OvKKJ808pn5OxpCvASaG7ZK0hozMxf80Ugg6qeeIdTGvzTDwiE
K7r30zTNYJJX9lAGShyHwAvnTvoWOqA=
-----END CERTIFICATE-----
