Certificate:
    Data:
        Version: 1 (0x0)
        Serial Number: 2 (0x2)
    Signature Algorithm: sha512WithRSAEncryption
        Issuer: C=US, ST=CA, O=Open vSwitch, OU=controllerca, CN=OVS controllerca CA Certificate (2017 Jul 19 15:52:01)
        Validity
            Not Before: Jul 19 19:52:22 2017 GMT
            Not After : Jul 17 19:52:22 2027 GMT
        Subject: C=US, ST=CA, O=Open vSwitch, OU=controllerca, CN=OVS controllerca CA Certificate (2017 Jul 19 15:52:01)
        Subject Public Key Info:
            Public Key Algorithm: rsaEncryption
                Public-Key: (1024 bit)
                Modulus:
                    00:bd:84:87:a2:d4:98:c7:90:40:5e:ae:d8:f3:d0:
                    d2:20:b0:90:54:cb:21:c7:2a:91:61:62:63:64:fa:
                    90:5e:7d:9c:33:af:91:eb:50:09:6d:51:c9:6d:97:
                    94:cf:7b:45:d1:8e:8c:0e:86:e4:24:e9:01:ba:8b:
                    dc:46:ed:15:3d:8a:93:e9:d2:41:a4:cd:d1:01:9f:
                    2b:f5:82:36:de:aa:17:23:2c:ae:41:3e:c5:ce:31:
                    2c:b6:16:c7:69:f9:d9:53:74:d6:b1:e2:a6:b8:ac:
                    1b:c8:84:55:57:90:1e:bc:61:87:2a:18:64:cd:50:
                    79:7f:f5:b7:24:51:92:01:4d
                Exponent: 65537 (0x10001)
    Signature Algorithm: sha512WithRSAEncryption
         69:47:a8:52:45:00:f9:16:b0:0b:ad:f3:97:6d:9d:2b:5e:6d:
         a4:61:d0:fa:db:b6:62:b3:fc:8d:b7:1a:23:11:c7:2b:2d:1c:
         8c:4f:e4:39:c6:58:ac:45:bb:13:e5:b7:1c:52:a6:da:56:cc:
         3e:31:14:08:85:17:25:ef:37:05:3d:1d:b3:ae:28:31:ed:2e:
         a2:2e:9b:62:ea:92:14:84:11:ea:bf:d3:c6:d2:94:e6:9d:82:
         cb:ac:cd:f2:74:9d:36:5f:5e:6d:06:29:e9:2a:d0:20:e3:46:
         5e:9e:8e:af:42:f6:23:53:1d:0d:29:5f:e9:ba:0e:6a:28:b7:
         3d:67
-----BEGIN CERTIFICATE-----
MIICgzCCAewCAQIwDQYJKoZIhvcNAQENBQAwgYkxCzAJBgNVBAYTAlVTMQswCQYD
VQQIDAJDQTEVMBMGA1UECgwMT3BlbiB2U3dpdGNoMRUwEwYDVQQLDAxjb250cm9s
bGVyY2ExPzA9BgNVBAMMNk9WUyBjb250cm9sbGVyY2EgQ0EgQ2VydGlmaWNhdGUg
KDIwMTcgSnVsIDE5IDE1OjUyOjAxKTAeFw0xNzA3MTkxOTUyMjJaFw0yNzA3MTcx
OTUyMjJaMIGJMQswCQYDVQQGEwJVUzELMAkGA1UECAwCQ0ExFTATBgNVBAoMDE9w
ZW4gdlN3aXRjaDEVMBMGA1UECwwMY29udHJvbGxlcmNhMT8wPQYDVQQDDDZPVlMg
Y29udHJvbGxlcmNhIENBIENlcnRpZmljYXRlICgyMDE3IEp1bCAxOSAxNTo1Mjow
MSkwgZ8wDQYJKoZIhvcNAQEBBQADgY0AMIGJAoGBAL2Eh6LUmMeQQF6u2PPQ0iCw
kFTLIccqkWFiY2T6kF59nDOvketQCW1RyW2XlM97RdGOjA6G5CTpAbqL3EbtFT2K
k+nSQaTN0QGfK/WCNt6qFyMsrkE+xc4xLLYWx2n52VN01rHiprisG8iEVVeQHrxh
hyoYZM1QeX/1tyRRkgFNAgMBAAEwDQYJKoZIhvcNAQENBQADgYEAaUeoUkUA+Raw
C63zl22dK15tpGHQ+tu2YrP8jbcaIxHHKy0cjE/kOcZYrEW7E+W3HFKm2lbMPjEU
CIUXJe83BT0ds64oMe0uoi6bYuqSFIQR6r/TxtKU5p2Cy6zN8nSdNl9ebQYp6SrQ
IONGXp6Or0L2I1MdDSlf6boOaii3PWc=
-----END CERTIFICATE-----
