Certificate:
    Data:
        Version: 1 (0x0)
        Serial Number: 2 (0x2)
    Signature Algorithm: sha512WithRSAEncryption
        Issuer: C=US, ST=CA, O=Open vSwitch, OU=switchca, CN=OVS switchca CA Certificate (2017 Jul 19 15:52:01)
        Validity
            Not Before: Jul 19 19:52:22 2017 GMT
            Not After : Jul 17 19:52:22 2027 GMT
        Subject: C=US, ST=CA, O=Open vSwitch, OU=switchca, CN=OVS switchca CA Certificate (2017 Jul 19 15:52:01)
        Subject Public Key Info:
            Public Key Algorithm: rsaEncryption
                Public-Key: (1024 bit)
                Modulus:
                    00:96:e2:71:f1:5d:5f:6c:f8:f3:00:61:3d:44:1d:
                    dd:83:e8:d8:ea:cc:35:82:c7:82:b3:52:af:75:6b:
                    10:e4:83:75:da:a5:02:da:37:99:a2:13:45:ce:18:
                    ca:5c:b0:d3:92:41:0d:e6:f8:35:9e:99:b6:aa:9b:
                    39:aa:21:ce:f5:9f:f7:e2:02:2c:ce:58:51:34:56:
                    6e:66:83:7e:01:9c:93:27:d1:31:e7:d4:9d:fd:7f:
                    8a:10:6e:58:f9:45:0c:2e:8c:c2:e1:9a:f1:ee:90:
                    fc:4e:2f:94:af:e7:9b:15:bb:f7:e1:f7:ed:4a:e0:
                    26:77:f6:e1:77:0d:21:32:f3
                Exponent: 65537 (0x10001)
    Signature Algorithm: sha512WithRSAEncryption
         1b:ac:d0:ab:b8:51:88:8a:a0:b1:6c:b1:18:b3:21:3d:bc:76:
         f7:ef:04:be:12:a1:3f:96:92:81:60:3f:c1:78:b0:fa:aa:71:
         f0:8c:f5:63:51:e2:84:1e:82:63:cc:d5:cd:b0:bd:54:c1:af:
         24:6e:30:b2:95:f7:fa:9b:80:a0:0f:73:dd:9b:b3:8e:07:fe:
         14:3f:3d:27:da:b0:b0:21:31:1c:c5:8e:6b:32:61:7d:e3:fe:
         84:a6:db:db:06:83:a3:e2:c6:40:8f:60:1c:60:44:6d:61:e5:
         bc:60:82:60:54:db:ff:e1:97:a0:c5:09:f1:b6:9c:da:2d:c6:
         d3:3e
-----BEGIN CERTIFICATE-----
MIICczCCAdwCAQIwDQYJKoZIhvcNAQENBQAwgYExCzAJBgNVBAYTAlVTMQswCQYD
VQQIDAJDQTEVMBMGA1UECgwMT3BlbiB2U3dpdGNoMREwDwYDVQQLDAhzd2l0Y2hj
YTE7MDkGA1UEAwwyT1ZTIHN3aXRjaGNhIENBIENlcnRpZmljYXRlICgyMDE3IEp1
bCAxOSAxNTo1MjowMSkwHhcNMTcwNzE5MTk1MjIyWhcNMjcwNzE3MTk1MjIyWjCB
gTELMAkGA1UEBhMCVVMxCzAJBgNVBAgMAkNBMRUwEwYDVQQKDAxPcGVuIHZTd2l0
Y2gxETAPBgNVBAsMCHN3aXRjaGNhMTswOQYDVQQDDDJPVlMgc3dpdGNoY2EgQ0Eg
Q2VydGlmaWNhdGUgKDIwMTcgSnVsIDE5IDE1OjUyOjAxKTCBnzANBgkqhkiG9w0B
AQEFAAOBjQAwgYkCgYEAluJx8V1fbPjzAGE9RB3dg+jY6sw1gseCs1KvdWsQ5IN1
2qUC2jeZohNFzhjKXLDTkkEN5vg1npm2qps5qiHO9Z/34gIszlhRNFZuZoN+AZyT
J9Ex59Sd/X+KEG5Y+UUMLozC4Zrx7pD8Ti+Ur+ebFbv34fftSuAmd/bhdw0hMvMC
AwEAATANBgkqhkiG9w0BAQ0FAAOBgQAbrNCruFGIiqCxbLEYsyE9vHb37wS+EqE/
lpKBYD/BeLD6qnHwjPVjUeKEHoJjzNXNsL1Uwa8kbjCylff6m4CgD3Pdm7OOB/4U
Pz0n2rCwITEcxY5rMmF94/6EptvbBoOj4sZAj2AcYERtYeW8YIJgVNv/4ZegxQnx
tpzaLcbTPg==
-----END CERTIFICATE-----
