Certificate Request:
    Data:
        Version: 1 (0x0)
        Subject: C = US, ST = CA, L = Palo Alto, O = Open vSwitch, OU = Open vSwitch certifier, CN = compute2
        Subject Public Key Info:
            Public Key Algorithm: rsaEncryption
                Public-Key: (1024 bit)
                Modulus:
                    00:e4:3b:a5:5f:b4:01:97:c2:f7:4c:4e:e7:a3:51:
                    51:79:2a:3f:c1:f4:7e:4a:24:e2:bf:36:69:53:84:
                    ee:b3:57:13:82:5d:e2:15:48:f3:98:e9:3e:45:42:
                    91:14:68:b2:e1:bc:3d:54:13:a1:d7:8b:fe:bf:93:
                    42:b2:b4:b8:4c:f8:d1:16:f6:ec:cb:db:82:5c:d6:
                    d4:86:1f:b8:5b:af:97:08:17:73:43:3c:bd:0a:b3:
                    c0:20:1c:52:da:9a:83:09:ca:5b:09:a6:3a:28:e1:
                    80:78:3f:4d:fd:69:25:e0:6b:fa:06:c6:dd:77:f3:
                    ed:02:cc:71:03:ae:8c:b0:5b
                Exponent: 65537 (0x10001)
        Attributes:
            a0:00
    Signature Algorithm: sha256WithRSAEncryption
         7f:99:22:e7:74:bf:d6:68:df:6b:fa:ca:44:f0:b7:ef:77:b0:
         c2:e2:1f:91:73:3d:0d:22:8e:87:4f:34:f4:bf:9b:64:47:ca:
         be:0e:e2:c2:78:ee:20:b7:e5:7e:54:23:e3:7d:f6:46:cc:ce:
         2a:ee:64:59:b3:aa:ca:56:3d:df:45:77:5d:20:0a:d8:a0:f9:
         60:3a:35:d6:a5:20:fd:08:88:32:b5:dd:91:43:7c:71:05:ca:
         40:8d:d5:3f:c5:06:00:31:33:06:af:89:a9:d1:15:86:b3:99:
         1f:bf:08:36:13:11:3e:37:0e:c9:be:cf:ac:1f:63:87:c3:e1:
         e3:77
-----BEGIN CERTIFICATE REQUEST-----
MIIBuTCCASICAQAweTELMAkGA1UEBhMCVVMxCzAJBgNVBAgMAkNBMRIwEAYDVQQH
DAlQYWxvIEFsdG8xFTATBgNVBAoMDE9wZW4gdlN3aXRjaDEfMB0GA1UECwwWT3Bl
biB2U3dpdGNoIGNlcnRpZmllcjERMA8GA1UEAwwIY29tcHV0ZTIwgZ8wDQYJKoZI
hvcNAQEBBQADgY0AMIGJAoGBAOQ7pV+0AZfC90xO56NRUXkqP8H0fkok4r82aVOE
7rNXE4Jd4hVI85jpPkVCkRRosuG8PVQTodeL/r+TQrK0uEz40Rb27MvbglzW1IYf
uFuvlwgXc0M8vQqzwCAcUtqagwnKWwmmOijhgHg/Tf1pJeBr+gbG3Xfz7QLMcQOu
jLBbAgMBAAGgADANBgkqhkiG9w0BAQsFAAOBgQB/mSLndL/WaN9r+spE8Lfvd7DC
4h+Rcz0NIo6HTzT0v5tkR8q+DuLCeO4gt+V+VCPjffZGzM4q7mRZs6rKVj3fRXdd
IArYoPlgOjXWpSD9CIgytd2RQ3xxBcpAjdU/xQYAMTMGr4mp0RWGs5kfvwg2ExE+
Nw7Jvs+sH2OHw+Hjdw==
-----END CERTIFICATE REQUEST-----
