Certificate:
    Data:
        Version: 1 (0x0)
        Serial Number: 8 (0x8)
    Signature Algorithm: sha512WithRSAEncryption
        Issuer: C=US, ST=CA, O=Open vSwitch, OU=switchca, CN=OVS switchca CA Certificate (2017 Jul 19 15:52:01)
        Validity
            Not Before: Jul 19 21:06:35 2017 GMT
            Not After : Jul 17 21:06:35 2027 GMT
        Subject: C=US, ST=CA, O=Open vSwitch, OU=Open vSwitch certifier, CN=compute1
        Subject Public Key Info:
            Public Key Algorithm: rsaEncryption
                Public-Key: (1024 bit)
                Modulus:
                    00:cc:4a:9b:ef:c9:8c:1d:9e:9f:b1:26:3b:71:3a:
                    c1:da:3c:f3:7a:c0:69:6c:41:4d:ff:10:45:aa:89:
                    f1:d6:65:04:d0:74:af:d9:c9:a1:f4:65:09:02:63:
                    08:2f:a9:30:ae:99:1b:9e:f8:eb:6c:fd:23:7b:3f:
                    68:c6:e6:00:f2:bb:7e:b6:0a:61:bc:9e:b2:0c:71:
                    0b:6a:ff:02:27:08:dc:f6:d4:70:6d:dc:4e:71:19:
                    1a:de:37:b0:b3:19:78:58:dc:d8:3c:6c:99:1f:70:
                    bd:ec:6f:1c:2c:62:9a:3c:42:05:c4:e3:38:2b:9f:
                    13:4e:b1:6e:bc:e7:4f:97:2b
                Exponent: 65537 (0x10001)
    Signature Algorithm: sha512WithRSAEncryption
         00:b4:43:15:28:3a:9d:82:03:bc:a4:81:03:d5:a7:f0:82:69:
         22:55:69:5b:27:f9:a5:f8:3f:d0:f3:ef:81:78:dd:79:0a:6a:
         82:2f:05:40:70:40:da:b0:c6:2b:30:d6:b3:4c:16:de:66:c8:
         0d:68:f5:74:da:1f:41:d7:77:37:9f:0c:55:d0:49:09:66:03:
         a8:7a:47:5b:52:d6:e9:f4:31:39:77:f1:ef:cf:a2:64:61:f8:
         d3:4b:df:6c:39:1c:52:25:00:64:08:58:cf:91:7b:a9:79:a3:
         50:02:83:d9:44:40:9a:97:5c:2a:d6:b9:db:5f:50:16:a0:11:
         bf:87
-----BEGIN CERTIFICATE-----
MIICVjCCAb8CAQgwDQYJKoZIhvcNAQENBQAwgYExCzAJBgNVBAYTAlVTMQswCQYD
VQQIDAJDQTEVMBMGA1UECgwMT3BlbiB2U3dpdGNoMREwDwYDVQQLDAhzd2l0Y2hj
YTE7MDkGA1UEAwwyT1ZTIHN3aXRjaGNhIENBIENlcnRpZmljYXRlICgyMDE3IEp1
bCAxOSAxNTo1MjowMSkwHhcNMTcwNzE5MjEwNjM1WhcNMjcwNzE3MjEwNjM1WjBl
MQswCQYDVQQGEwJVUzELMAkGA1UECAwCQ0ExFTATBgNVBAoMDE9wZW4gdlN3aXRj
aDEfMB0GA1UECwwWT3BlbiB2U3dpdGNoIGNlcnRpZmllcjERMA8GA1UEAwwIY29t
cHV0ZTEwgZ8wDQYJKoZIhvcNAQEBBQADgY0AMIGJAoGBAMxKm+/JjB2en7EmO3E6
wdo883rAaWxBTf8QRaqJ8dZlBNB0r9nJofRlCQJjCC+pMK6ZG57462z9I3s/aMbm
APK7frYKYbyesgxxC2r/AicI3PbUcG3cTnEZGt43sLMZeFjc2DxsmR9wvexvHCxi
mjxCBcTjOCufE06xbrznT5crAgMBAAEwDQYJKoZIhvcNAQENBQADgYEAALRDFSg6
nYIDvKSBA9Wn8IJpIlVpWyf5pfg/0PPvgXjdeQpqgi8FQHBA2rDGKzDWs0wW3mbI
DWj1dNofQdd3N58MVdBJCWYDqHpHW1LW6fQxOXfx78+iZGH400vfbDkcUiUAZAhY
z5F7qXmjUAKD2URAmpdcKta5219QFqARv4c=
-----END CERTIFICATE-----
