Certificate Request:
    Data:
        Version: 1 (0x0)
        Subject: C = US, ST = CA, L = Palo Alto, O = Open vSwitch, OU = Open vSwitch certifier, CN = compute3
        Subject Public Key Info:
            Public Key Algorithm: rsaEncryption
                Public-Key: (1024 bit)
                Modulus:
                    00:bc:39:bb:5b:db:b1:4c:4f:8f:46:85:e0:f5:16:
                    a4:aa:8e:89:b5:87:10:d0:b6:29:43:15:09:e0:54:
                    43:ed:7f:aa:60:9f:a9:cc:e0:77:b6:3d:1d:5c:c7:
                    dc:93:cc:50:ba:e3:85:28:9a:b1:c0:c3:a2:ef:31:
                    1c:51:52:2e:5a:56:0d:d3:98:39:f4:6c:e6:d5:2d:
                    9a:7d:56:93:51:b9:92:5a:df:0c:d7:36:4e:2b:bf:
                    a9:70:ad:bc:d5:6d:11:18:99:ef:3b:61:bd:3e:f2:
                    11:c3:6f:b5:c6:ce:5e:db:c4:f7:7d:f2:64:47:42:
                    ac:31:f9:f2:eb:76:92:b0:9f
                Exponent: 65537 (0x10001)
        Attributes:
            a0:00
    Signature Algorithm: sha256WithRSAEncryption
         86:ea:64:60:eb:13:97:03:b5:e8:4f:ed:2f:a8:24:69:c6:23:
         cd:62:bb:fa:7c:67:15:d5:ba:23:ee:53:6e:80:fd:b6:8e:91:
         22:27:f3:97:c8:71:1e:1a:61:32:c0:d4:f2:17:91:b1:7f:02:
         74:ad:6c:d1:78:5a:87:6e:4b:77:3a:07:af:3c:ef:51:11:8e:
         ac:c3:ed:93:08:d9:07:9d:65:3a:a7:a0:25:4a:b7:b9:b2:69:
         5b:1e:25:46:62:5a:3d:04:38:a6:48:ad:d4:27:4c:b0:bd:c4:
         18:ea:6a:dc:b8:5b:ca:42:c5:7b:79:50:ab:e4:e8:73:a3:20:
         c1:51
-----BEGIN CERTIFICATE REQUEST-----
MIIBuTCCASICAQAweTELMAkGA1UEBhMCVVMxCzAJBgNVBAgMAkNBMRIwEAYDVQQH
DAlQYWxvIEFsdG8xFTATBgNVBAoMDE9wZW4gdlN3aXRjaDEfMB0GA1UECwwWT3Bl
biB2U3dpdGNoIGNlcnRpZmllcjERMA8GA1UEAwwIY29tcHV0ZTMwgZ8wDQYJKoZI
hvcNAQEBBQADgY0AMIGJAoGBALw5u1vbsUxPj0aF4PUWpKqOibWHENC2KUMVCeBU
Q+1/qmCfqczgd7Y9HVzH3JPMULrjhSiascDDou8xHFFSLlpWDdOYOfRs5tUtmn1W
k1G5klrfDNc2Tiu/qXCtvNVtERiZ7zthvT7yEcNvtcbOXtvE933yZEdCrDH58ut2
krCfAgMBAAGgADANBgkqhkiG9w0BAQsFAAOBgQCG6mRg6xOXA7XoT+0vqCRpxiPN
Yrv6fGcV1boj7lNugP22jpEiJ/OXyHEeGmEywNTyF5GxfwJ0rWzReFqHbkt3Ogev
PO9REY6sw+2TCNkHnWU6p6AlSre5smlbHiVGYlo9BDimSK3UJ0ywvcQY6mrcuFvK
QsV7eVCr5OhzoyDBUQ==
-----END CERTIFICATE REQUEST-----
