Certificate Request:
    Data:
        Version: 1 (0x0)
        Subject: C = US, ST = CA, L = Palo Alto, O = Open vSwitch, OU = Open vSwitch certifier, CN = compute1
        Subject Public Key Info:
            Public Key Algorithm: rsaEncryption
                Public-Key: (1024 bit)
                Modulus:
                    00:cc:4a:9b:ef:c9:8c:1d:9e:9f:b1:26:3b:71:3a:
                    c1:da:3c:f3:7a:c0:69:6c:41:4d:ff:10:45:aa:89:
                    f1:d6:65:04:d0:74:af:d9:c9:a1:f4:65:09:02:63:
                    08:2f:a9:30:ae:99:1b:9e:f8:eb:6c:fd:23:7b:3f:
                    68:c6:e6:00:f2:bb:7e:b6:0a:61:bc:9e:b2:0c:71:
                    0b:6a:ff:02:27:08:dc:f6:d4:70:6d:dc:4e:71:19:
                    1a:de:37:b0:b3:19:78:58:dc:d8:3c:6c:99:1f:70:
                    bd:ec:6f:1c:2c:62:9a:3c:42:05:c4:e3:38:2b:9f:
                    13:4e:b1:6e:bc:e7:4f:97:2b
                Exponent: 65537 (0x10001)
        Attributes:
            a0:00
    Signature Algorithm: sha256WithRSAEncryption
         59:85:f5:ef:d8:69:bc:f1:98:72:b8:93:0b:4d:24:07:d7:7b:
         26:7b:06:f4:cf:b0:b2:c5:af:c6:d3:2e:b8:58:46:44:44:d4:
         6b:c1:6b:26:88:c3:6f:3c:c0:44:63:6e:62:d2:06:20:05:3f:
         62:5c:49:3d:f3:de:d3:4f:01:f3:b2:91:5b:87:86:ae:ab:8c:
         fb:d8:13:3c:da:f9:13:92:01:4d:66:df:00:7d:f0:c7:12:dd:
         e5:4b:0a:25:ee:3b:f1:a1:ac:bc:88:87:d5:d8:c5:70:66:53:
         16:1a:24:68:83:27:7a:a6:10:99:cf:c8:14:97:f2:9f:c2:60:
         dd:fb
-----BEGIN CERTIFICATE REQUEST-----
MIIBuTCCASICAQAweTELMAkGA1UEBhMCVVMxCzAJBgNVBAgMAkNBMRIwEAYDVQQH
DAlQYWxvIEFsdG8xFTATBgNVBAoMDE9wZW4gdlN3aXRjaDEfMB0GA1UECwwWT3Bl
biB2U3dpdGNoIGNlcnRpZmllcjERMA8GA1UEAwwIY29tcHV0ZTEwgZ8wDQYJKoZI
hvcNAQEBBQADgY0AMIGJAoGBAMxKm+/JjB2en7EmO3E6wdo883rAaWxBTf8QRaqJ
8dZlBNB0r9nJofRlCQJjCC+pMK6ZG57462z9I3s/aMbmAPK7frYKYbyesgxxC2r/
AicI3PbUcG3cTnEZGt43sLMZeFjc2DxsmR9wvexvHCximjxCBcTjOCufE06xbrzn
T5crAgMBAAGgADANBgkqhkiG9w0BAQsFAAOBgQBZhfXv2Gm88ZhyuJMLTSQH13sm
ewb0z7Cyxa/G0y64WEZERNRrwWsmiMNvPMBEY25i0gYgBT9iXEk9897TTwHzspFb
h4auq4z72BM82vkTkgFNZt8AffDHEt3lSwol7jvxoay8iIfV2MVwZlMWGiRogyd6
phCZz8gUl/KfwmDd+w==
-----END CERTIFICATE REQUEST-----
