Certificate:
    Data:
        Version: 1 (0x0)
        Serial Number: 7 (0x7)
    Signature Algorithm: sha512WithRSAEncryption
        Issuer: C=US, ST=CA, O=Open vSwitch, OU=switchca, CN=OVS switchca CA Certificate (2017 Jul 19 15:52:01)
        Validity
            Not Before: Jul 19 21:06:28 2017 GMT
            Not After : Jul 17 21:06:28 2027 GMT
        Subject: C=US, ST=CA, O=Open vSwitch, OU=Open vSwitch certifier, CN=compute2
        Subject Public Key Info:
            Public Key Algorithm: rsaEncryption
                Public-Key: (1024 bit)
                Modulus:
                    00:e4:3b:a5:5f:b4:01:97:c2:f7:4c:4e:e7:a3:51:
                    51:79:2a:3f:c1:f4:7e:4a:24:e2:bf:36:69:53:84:
                    ee:b3:57:13:82:5d:e2:15:48:f3:98:e9:3e:45:42:
                    91:14:68:b2:e1:bc:3d:54:13:a1:d7:8b:fe:bf:93:
                    42:b2:b4:b8:4c:f8:d1:16:f6:ec:cb:db:82:5c:d6:
                    d4:86:1f:b8:5b:af:97:08:17:73:43:3c:bd:0a:b3:
                    c0:20:1c:52:da:9a:83:09:ca:5b:09:a6:3a:28:e1:
                    80:78:3f:4d:fd:69:25:e0:6b:fa:06:c6:dd:77:f3:
                    ed:02:cc:71:03:ae:8c:b0:5b
                Exponent: 65537 (0x10001)
    Signature Algorithm: sha512WithRSAEncryption
         87:5f:1d:1d:48:be:bd:f5:48:2d:1f:7e:90:9f:13:73:6e:08:
         ba:b4:0c:95:95:bb:9c:fe:7b:45:f1:09:c8:e0:69:8f:39:2c:
         d9:00:87:91:e2:5c:0e:9f:55:4c:c9:63:f1:65:4e:fa:f5:c1:
         3c:d4:2a:bf:7a:39:dc:82:0f:42:28:dd:b2:9d:8f:43:c1:dd:
         d3:62:d7:64:f3:20:3c:a5:ad:f0:9c:04:04:d1:f3:4d:03:74:
         93:07:7b:bc:68:6f:b7:8c:43:58:ff:db:27:a5:e4:38:75:e7:
         d3:c1:5e:3a:1d:87:c5:67:f5:e7:45:1a:15:58:6f:ec:b0:18:
         08:b2
-----BEGIN CERTIFICATE-----
MIICVjCCAb8CAQcwDQYJKoZIhvcNAQENBQAwgYExCzAJBgNVBAYTAlVTMQswCQYD
VQQIDAJDQTEVMBMGA1UECgwMT3BlbiB2U3dpdGNoMREwDwYDVQQLDAhzd2l0Y2hj
YTE7MDkGA1UEAwwyT1ZTIHN3aXRjaGNhIENBIENlcnRpZmljYXRlICgyMDE3IEp1
bCAxOSAxNTo1MjowMSkwHhcNMTcwNzE5MjEwNjI4WhcNMjcwNzE3MjEwNjI4WjBl
MQswCQYDVQQGEwJVUzELMAkGA1UECAwCQ0ExFTATBgNVBAoMDE9wZW4gdlN3aXRj
aDEfMB0GA1UECwwWT3BlbiB2U3dpdGNoIGNlcnRpZmllcjERMA8GA1UEAwwIY29t
cHV0ZTIwgZ8wDQYJKoZIhvcNAQEBBQADgY0AMIGJAoGBAOQ7pV+0AZfC90xO56NR
UXkqP8H0fkok4r82aVOE7rNXE4Jd4hVI85jpPkVCkRRosuG8PVQTodeL/r+TQrK0
uEz40Rb27MvbglzW1IYfuFuvlwgXc0M8vQqzwCAcUtqagwnKWwmmOijhgHg/Tf1p
JeBr+gbG3Xfz7QLMcQOujLBbAgMBAAEwDQYJKoZIhvcNAQENBQADgYEAh18dHUi+
vfVILR9+kJ8Tc24IurQMlZW7nP57RfEJyOBpjzks2QCHkeJcDp9VTMlj8WVO+vXB
PNQqv3o53IIPQijdsp2PQ8Hd02LXZPMgPKWt8JwEBNHzTQN0kwd7vGhvt4xDWP/b
J6XkOHXn08FeOh2HxWf150UaFVhv7LAYCLI=
-----END CERTIFICATE-----
