Certificate Request:
    Data:
        Version: 1 (0x0)
        Subject: C = US, ST = CA, L = Palo Alto, O = Open vSwitch, OU = Open vSwitch certifier, CN = ovnnb id:cb9821a1-b47b-4862-89a0-b0124c6ba2d0
        Subject Public Key Info:
            Public Key Algorithm: rsaEncryption
                Public-Key: (1024 bit)
                Modulus:
                    00:c9:3c:0c:c6:2c:4e:1a:78:2f:2a:d4:0b:f6:54:
                    cf:72:b2:aa:fe:ec:eb:e0:de:b5:14:5d:a8:5a:d5:
                    ef:ab:2f:e4:14:b1:f2:53:c0:a0:4c:b7:f4:b2:59:
                    4b:08:7b:b5:e1:63:ec:fe:72:a8:e8:5d:4c:1d:6b:
                    10:fc:47:a3:a7:ef:d5:37:46:23:e2:9c:00:d9:1f:
                    7c:f2:91:e7:fb:47:23:25:98:8c:be:33:10:4e:9c:
                    28:a1:94:3d:ca:0a:8c:68:45:ba:99:c2:be:4c:c3:
                    77:ad:a6:5d:5a:f1:5b:ea:de:7e:e6:3c:56:d7:d5:
                    99:24:a5:63:ad:61:e2:92:5d
                Exponent: 65537 (0x10001)
        Attributes:
            a0:00
    Signature Algorithm: sha256WithRSAEncryption
         37:3b:67:32:74:b1:f6:7f:18:23:31:23:e5:72:36:62:67:e8:
         96:15:b9:09:54:54:7b:09:dc:b3:a6:c9:13:b0:9d:ce:bf:e6:
         58:18:79:00:61:3b:df:fe:b6:4a:12:17:88:da:44:bc:9c:6e:
         d2:ed:6e:f4:07:86:a9:ee:89:be:97:f2:bc:ce:70:a4:64:42:
         40:2c:92:e9:8d:48:17:43:96:30:ad:16:a0:25:34:04:ef:cf:
         9e:8b:59:23:9a:f0:d6:92:9b:fd:cd:ce:d8:1f:59:5e:53:1f:
         9f:37:aa:0b:c4:b7:41:37:1a:46:8c:a8:5e:1c:fa:2c:42:39:
         f9:01
-----BEGIN CERTIFICATE REQUEST-----
MIIB3zCCAUgCAQAwgZ4xCzAJBgNVBAYTAlVTMQswCQYDVQQIDAJDQTESMBAGA1UE
BwwJUGFsbyBBbHRvMRUwEwYDVQQKDAxPcGVuIHZTd2l0Y2gxHzAdBgNVBAsMFk9w
ZW4gdlN3aXRjaCBjZXJ0aWZpZXIxNjA0BgNVBAMMLW92bm5iIGlkOmNiOTgyMWEx
LWI0N2ItNDg2Mi04OWEwLWIwMTI0YzZiYTJkMDCBnzANBgkqhkiG9w0BAQEFAAOB
jQAwgYkCgYEAyTwMxixOGngvKtQL9lTPcrKq/uzr4N61FF2oWtXvqy/kFLHyU8Cg
TLf0sllLCHu14WPs/nKo6F1MHWsQ/Eejp+/VN0Yj4pwA2R988pHn+0cjJZiMvjMQ
TpwooZQ9ygqMaEW6mcK+TMN3raZdWvFb6t5+5jxW19WZJKVjrWHikl0CAwEAAaAA
MA0GCSqGSIb3DQEBCwUAA4GBADc7ZzJ0sfZ/GCMxI+VyNmJn6JYVuQlUVHsJ3LOm
yROwnc6/5lgYeQBhO9/+tkoSF4jaRLycbtLtbvQHhqnuib6X8rzOcKRkQkAskumN
SBdDljCtFqAlNATvz56LWSOa8NaSm/3NztgfWV5TH583qgvEt0E3GkaMqF4c+ixC
OfkB
-----END CERTIFICATE REQUEST-----
