Certificate:
    Data:
        Version: 1 (0x0)
        Serial Number: 3 (0x3)
    Signature Algorithm: sha512WithRSAEncryption
        Issuer: C=US, ST=CA, O=Open vSwitch, OU=switchca, CN=OVS switchca CA Certificate (2017 Jul 19 15:52:01)
        Validity
            Not Before: Jul 19 19:52:32 2017 GMT
            Not After : Jul 17 19:52:32 2027 GMT
        Subject: C=US, ST=CA, O=Open vSwitch, OU=Open vSwitch certifier, CN=ovnsb id:6d10dcac-b4e9-4e6e-bef1-fd56675afc68
        Subject Public Key Info:
            Public Key Algorithm: rsaEncryption
                Public-Key: (1024 bit)
                Modulus:
                    00:dc:ac:a8:0f:1c:a5:37:f3:3c:9f:c3:09:57:ae:
                    10:85:8a:7e:fa:3d:16:31:8c:21:9f:0a:2c:66:10:
                    2b:f8:be:bd:aa:28:be:0c:b0:19:84:d7:24:26:a4:
                    a2:c9:30:af:26:1c:c5:5b:b7:37:23:de:3c:57:c6:
                    f8:52:50:ca:58:08:2f:24:54:08:7e:ce:71:91:e1:
                    f4:2c:89:81:5a:4e:91:ca:1e:a9:0b:88:3d:d9:fc:
                    df:62:ac:89:e0:33:51:93:9a:b1:28:b1:14:06:ba:
                    b6:0b:e6:d9:98:65:fa:87:a2:a9:96:24:f9:71:51:
                    56:c7:e6:7b:e1:2d:92:2d:7f
                Exponent: 65537 (0x10001)
    Signature Algorithm: sha512WithRSAEncryption
         5a:3d:9a:6a:8d:4e:43:04:a2:60:ac:16:e8:48:07:69:3a:cc:
         de:d7:42:7c:11:7a:79:22:ce:47:6e:e4:e2:78:e9:b8:58:fc:
         11:a3:06:4b:5e:a2:b3:72:76:57:90:5d:fa:1e:52:4c:25:7d:
         e4:2e:bf:a5:9d:58:a9:44:76:71:83:11:ff:53:af:86:4e:f4:
         1b:3f:50:e5:71:21:66:91:e7:4a:74:8c:ab:fd:da:af:a5:f6:
         4a:c4:d4:9c:c0:c2:77:aa:31:d1:fe:08:91:ec:c3:05:0e:9d:
         1a:93:23:42:5f:6c:b8:5f:a3:10:bc:50:28:91:9c:a4:be:3f:
         10:dd
-----BEGIN CERTIFICATE-----
MIICfDCCAeUCAQMwDQYJKoZIhvcNAQENBQAwgYExCzAJBgNVBAYTAlVTMQswCQYD
VQQIDAJDQTEVMBMGA1UECgwMT3BlbiB2U3dpdGNoMREwDwYDVQQLDAhzd2l0Y2hj
YTE7MDkGA1UEAwwyT1ZTIHN3aXRjaGNhIENBIENlcnRpZmljYXRlICgyMDE3IEp1
bCAxOSAxNTo1MjowMSkwHhcNMTcwNzE5MTk1MjMyWhcNMjcwNzE3MTk1MjMyWjCB
ijELMAkGA1UEBhMCVVMxCzAJBgNVBAgMAkNBMRUwEwYDVQQKDAxPcGVuIHZTd2l0
Y2gxHzAdBgNVBAsMFk9wZW4gdlN3aXRjaCBjZXJ0aWZpZXIxNjA0BgNVBAMMLW92
bnNiIGlkOjZkMTBkY2FjLWI0ZTktNGU2ZS1iZWYxLWZkNTY2NzVhZmM2ODCBnzAN
BgkqhkiG9w0BAQEFAAOBjQAwgYkCgYEA3KyoDxylN/M8n8MJV64QhYp++j0WMYwh
nwosZhAr+L69qii+DLAZhNckJqSiyTCvJhzFW7c3I948V8b4UlDKWAgvJFQIfs5x
keH0LImBWk6Ryh6pC4g92fzfYqyJ4DNRk5qxKLEUBrq2C+bZmGX6h6KpliT5cVFW
x+Z74S2SLX8CAwEAATANBgkqhkiG9w0BAQ0FAAOBgQBaPZpqjU5DBKJgrBboSAdp
Osze10J8EXp5Is5HbuTieOm4WPwRowZLXqKzcnZXkF36HlJMJX3kLr+lnVipRHZx
gxH/U6+GTvQbP1DlcSFmkedKdIyr/dqvpfZKxNScwMJ3qjHR/giR7MMFDp0akyNC
X2y4X6MQvFAokZykvj8Q3Q==
-----END CERTIFICATE-----
