Certificate Request:
    Data:
        Version: 1 (0x0)
        Subject: C = US, ST = CA, L = Palo Alto, O = Open vSwitch, OU = Open vSwitch certifier, CN = ovnsb id:6d10dcac-b4e9-4e6e-bef1-fd56675afc68
        Subject Public Key Info:
            Public Key Algorithm: rsaEncryption
                Public-Key: (1024 bit)
                Modulus:
                    00:dc:ac:a8:0f:1c:a5:37:f3:3c:9f:c3:09:57:ae:
                    10:85:8a:7e:fa:3d:16:31:8c:21:9f:0a:2c:66:10:
                    2b:f8:be:bd:aa:28:be:0c:b0:19:84:d7:24:26:a4:
                    a2:c9:30:af:26:1c:c5:5b:b7:37:23:de:3c:57:c6:
                    f8:52:50:ca:58:08:2f:24:54:08:7e:ce:71:91:e1:
                    f4:2c:89:81:5a:4e:91:ca:1e:a9:0b:88:3d:d9:fc:
                    df:62:ac:89:e0:33:51:93:9a:b1:28:b1:14:06:ba:
                    b6:0b:e6:d9:98:65:fa:87:a2:a9:96:24:f9:71:51:
                    56:c7:e6:7b:e1:2d:92:2d:7f
                Exponent: 65537 (0x10001)
        Attributes:
            a0:00
    Signature Algorithm: sha256WithRSAEncryption
         52:46:5f:be:61:cd:70:f9:8c:e0:de:07:1b:d5:fc:36:dc:44:
         fe:01:79:0f:ae:ed:f3:ab:21:4c:d4:a6:56:7b:52:5a:36:cb:
         09:80:6a:e3:1f:91:29:29:58:69:c5:d9:10:1d:b0:1c:82:34:
         33:ab:96:81:93:28:89:5b:6e:0e:d9:04:b3:4d:ff:cf:29:72:
         4b:f7:44:6b:b4:8e:00:9b:76:58:96:1b:2e:b2:4b:eb:a8:06:
         1d:15:f3:0c:20:9e:92:cb:6a:dd:b8:dd:3f:f0:0a:a7:38:92:
         49:37:3d:a3:75:b2:27:c1:59:30:4c:04:44:f2:b6:d6:f7:bb:
         f4:6b
-----BEGIN CERTIFICATE REQUEST-----
MIIB3zCCAUgCAQAwgZ4xCzAJBgNVBAYTAlVTMQswCQYDVQQIDAJDQTESMBAGA1UE
BwwJUGFsbyBBbHRvMRUwEwYDVQQKDAxPcGVuIHZTd2l0Y2gxHzAdBgNVBAsMFk9w
ZW4gdlN3aXRjaCBjZXJ0aWZpZXIxNjA0BgNVBAMMLW92bnNiIGlkOjZkMTBkY2Fj
LWI0ZTktNGU2ZS1iZWYxLWZkNTY2NzVhZmM2ODCBnzANBgkqhkiG9w0BAQEFAAOB
jQAwgYkCgYEA3KyoDxylN/M8n8MJV64QhYp++j0WMYwhnwosZhAr+L69qii+DLAZ
hNckJqSiyTCvJhzFW7c3I948V8b4UlDKWAgvJFQIfs5xkeH0LImBWk6Ryh6pC4g9
2fzfYqyJ4DNRk5qxKLEUBrq2C+bZmGX6h6KpliT5cVFWx+Z74S2SLX8CAwEAAaAA
MA0GCSqGSIb3DQEBCwUAA4GBAFJGX75hzXD5jODeBxvV/DbcRP4BeQ+u7fOrIUzU
plZ7Ulo2ywmAauMfkSkpWGnF2RAdsByCNDOrloGTKIlbbg7ZBLNN/88pckv3RGu0
jgCbdliWGy6yS+uoBh0V8wwgnpLLat243T/wCqc4kkk3PaN1sifBWTBMBETyttb3
u/Rr
-----END CERTIFICATE REQUEST-----
